0000000080013b60 <inner_loop>:
    80013b60:	fb442783          	lw	a5,-76(s0)
    80013b64:	078a                	slli	a5,a5,0x2
    80013b66:	f4043703          	ld	a4,-192(s0)
    80013b6a:	97ba                	add	a5,a5,a4
    80013b6c:	439c                	lw	a5,0(a5)
    80013b6e:	f0f42c23          	sw	a5,-232(s0)
    80013b72:	f1842703          	lw	a4,-232(s0)
    80013b76:	87ba                	mv	a5,a4
    80013b78:	0017979b          	slliw	a5,a5,0x1
    80013b7c:	9fb9                	addw	a5,a5,a4
    80013b7e:	2781                	sext.w	a5,a5
    80013b80:	078e                	slli	a5,a5,0x3
    80013b82:	f5843703          	ld	a4,-168(s0)
    80013b86:	97ba                	add	a5,a5,a4
    80013b88:	239c                	fld	fa5,0(a5)
    80013b8a:	f3043707          	fld	fa4,-208(s0)
    80013b8e:	0af777d3          	fsub.d	fa5,fa4,fa5
    80013b92:	f0f43827          	fsd	fa5,-240(s0)
    80013b96:	f1842703          	lw	a4,-232(s0)
    80013b9a:	87ba                	mv	a5,a4
    80013b9c:	0017979b          	slliw	a5,a5,0x1
    80013ba0:	9fb9                	addw	a5,a5,a4
    80013ba2:	2781                	sext.w	a5,a5
    80013ba4:	0785                	addi	a5,a5,1
    80013ba6:	078e                	slli	a5,a5,0x3
    80013ba8:	f5843703          	ld	a4,-168(s0)
    80013bac:	97ba                	add	a5,a5,a4
    80013bae:	239c                	fld	fa5,0(a5)
    80013bb0:	f2843707          	fld	fa4,-216(s0)
    80013bb4:	0af777d3          	fsub.d	fa5,fa4,fa5
    80013bb8:	f0f43427          	fsd	fa5,-248(s0)
    80013bbc:	f1842703          	lw	a4,-232(s0)
    80013bc0:	87ba                	mv	a5,a4
    80013bc2:	0017979b          	slliw	a5,a5,0x1
    80013bc6:	9fb9                	addw	a5,a5,a4
    80013bc8:	2781                	sext.w	a5,a5
    80013bca:	0789                	addi	a5,a5,2
    80013bcc:	078e                	slli	a5,a5,0x3
    80013bce:	f5843703          	ld	a4,-168(s0)
    80013bd2:	97ba                	add	a5,a5,a4
    80013bd4:	239c                	fld	fa5,0(a5)
    80013bd6:	f2043707          	fld	fa4,-224(s0)
    80013bda:	0af777d3          	fsub.d	fa5,fa4,fa5
    80013bde:	f0f43027          	fsd	fa5,-256(s0)
    80013be2:	f1842783          	lw	a5,-232(s0)
    80013be6:	078a                	slli	a5,a5,0x2
    80013be8:	f4843703          	ld	a4,-184(s0)
    80013bec:	97ba                	add	a5,a5,a4
    80013bee:	439c                	lw	a5,0(a5)
    80013bf0:	eef42e23          	sw	a5,-260(s0)
    80013bf4:	f1043787          	fld	fa5,-240(s0)
    80013bf8:	12f7f753          	fmul.d	fa4,fa5,fa5
    80013bfc:	f0843787          	fld	fa5,-248(s0)
    80013c00:	12f7f7d3          	fmul.d	fa5,fa5,fa5
    80013c04:	02f77753          	fadd.d	fa4,fa4,fa5
    80013c08:	f0043787          	fld	fa5,-256(s0)
    80013c0c:	12f7f7d3          	fmul.d	fa5,fa5,fa5
    80013c10:	02f777d3          	fadd.d	fa5,fa4,fa5
    80013c14:	eef43827          	fsd	fa5,-272(s0)
    80013c18:	f1c42703          	lw	a4,-228(s0)
    80013c1c:	f9c42783          	lw	a5,-100(s0)
    80013c20:	02f707bb          	mulw	a5,a4,a5
    80013c24:	2781                	sext.w	a5,a5
    80013c26:	efc42703          	lw	a4,-260(s0)
    80013c2a:	9fb9                	addw	a5,a5,a4
    80013c2c:	eef42623          	sw	a5,-276(s0)
    80013c30:	eec42783          	lw	a5,-276(s0)
    80013c34:	078e                	slli	a5,a5,0x3
    80013c36:	f9043703          	ld	a4,-112(s0)
    80013c3a:	97ba                	add	a5,a5,a4
    80013c3c:	239c                	fld	fa5,0(a5)
    80013c3e:	ef043707          	fld	fa4,-272(s0)
    80013c42:	a2f717d3          	flt.d	a5,fa4,fa5
    80013c46:	28078863          	beqz	a5,80013ed6 <inner_loop+0x376>
    --154 OCCURRENCIES * 155cc (1st 285)

    80013c4a:	00002797          	auipc	a5,0x2
    80013c4e:	6e678793          	addi	a5,a5,1766 # 80016330 <__tbss_end+0x838>
    80013c52:	2398                	fld	fa4,0(a5)
    80013c54:	ef043787          	fld	fa5,-272(s0)
    80013c58:	1af777d3          	fdiv.d	fa5,fa4,fa5
    80013c5c:	eef43027          	fsd	fa5,-288(s0)
    80013c60:	ee043787          	fld	fa5,-288(s0)
    80013c64:	12f7f753          	fmul.d	fa4,fa5,fa5
    80013c68:	ee043787          	fld	fa5,-288(s0)
    80013c6c:	12f77753          	fmul.d	fa4,fa4,fa5
    80013c70:	eec42783          	lw	a5,-276(s0)
    80013c74:	078e                	slli	a5,a5,0x3
    80013c76:	f8043703          	ld	a4,-128(s0)
    80013c7a:	97ba                	add	a5,a5,a4
    80013c7c:	239c                	fld	fa5,0(a5)
    80013c7e:	12f777d3          	fmul.d	fa5,fa4,fa5
    80013c82:	ecf43c27          	fsd	fa5,-296(s0)
    80013c86:	ed843707          	fld	fa4,-296(s0)
    80013c8a:	00002797          	auipc	a5,0x2
    80013c8e:	6ae78793          	addi	a5,a5,1710 # 80016338 <__tbss_end+0x840>
    80013c92:	239c                	fld	fa5,0(a5)
    80013c94:	12f77753          	fmul.d	fa4,fa4,fa5
    80013c98:	ed843687          	fld	fa3,-296(s0)
    80013c9c:	00002797          	auipc	a5,0x2
    80013ca0:	6a478793          	addi	a5,a5,1700 # 80016340 <__tbss_end+0x848>
    80013ca4:	239c                	fld	fa5,0(a5)
    80013ca6:	0af6f7d3          	fsub.d	fa5,fa3,fa5
    80013caa:	12f77753          	fmul.d	fa4,fa4,fa5
    80013cae:	ee043787          	fld	fa5,-288(s0)
    80013cb2:	12f77753          	fmul.d	fa4,fa4,fa5
    80013cb6:	eec42783          	lw	a5,-276(s0)
    80013cba:	078e                	slli	a5,a5,0x3
    80013cbc:	f8843703          	ld	a4,-120(s0)
    80013cc0:	97ba                	add	a5,a5,a4
    80013cc2:	239c                	fld	fa5,0(a5)
    80013cc4:	12f777d3          	fmul.d	fa5,fa4,fa5
    80013cc8:	ecf43827          	fsd	fa5,-304(s0)
    80013ccc:	fb842703          	lw	a4,-72(s0)
    80013cd0:	87ba                	mv	a5,a4
    80013cd2:	0017979b          	slliw	a5,a5,0x1
    80013cd6:	9fb9                	addw	a5,a5,a4
    80013cd8:	2781                	sext.w	a5,a5
    80013cda:	078e                	slli	a5,a5,0x3
    80013cdc:	f5043703          	ld	a4,-176(s0)
    80013ce0:	97ba                	add	a5,a5,a4
    80013ce2:	2398                	fld	fa4,0(a5)
    80013ce4:	f1043687          	fld	fa3,-240(s0)
    80013ce8:	ed043787          	fld	fa5,-304(s0)
    80013cec:	12f6f7d3          	fmul.d	fa5,fa3,fa5
    80013cf0:	fb842703          	lw	a4,-72(s0)
    80013cf4:	87ba                	mv	a5,a4
    80013cf6:	0017979b          	slliw	a5,a5,0x1
    80013cfa:	9fb9                	addw	a5,a5,a4
    80013cfc:	2781                	sext.w	a5,a5
    80013cfe:	078e                	slli	a5,a5,0x3
    80013d00:	f5043703          	ld	a4,-176(s0)
    80013d04:	97ba                	add	a5,a5,a4
    80013d06:	02f777d3          	fadd.d	fa5,fa4,fa5
    80013d0a:	a39c                	fsd	fa5,0(a5)
    80013d0c:	fb842703          	lw	a4,-72(s0)
    80013d10:	87ba                	mv	a5,a4
    80013d12:	0017979b          	slliw	a5,a5,0x1
    80013d16:	9fb9                	addw	a5,a5,a4
    80013d18:	2781                	sext.w	a5,a5
    80013d1a:	0785                	addi	a5,a5,1
    80013d1c:	078e                	slli	a5,a5,0x3
    80013d1e:	f5043703          	ld	a4,-176(s0)
    80013d22:	97ba                	add	a5,a5,a4
    80013d24:	2398                	fld	fa4,0(a5)
    80013d26:	f0843687          	fld	fa3,-248(s0)
    80013d2a:	ed043787          	fld	fa5,-304(s0)
    80013d2e:	12f6f7d3          	fmul.d	fa5,fa3,fa5
    80013d32:	fb842703          	lw	a4,-72(s0)
    80013d36:	87ba                	mv	a5,a4
    80013d38:	0017979b          	slliw	a5,a5,0x1
    80013d3c:	9fb9                	addw	a5,a5,a4
    80013d3e:	2781                	sext.w	a5,a5
    80013d40:	0785                	addi	a5,a5,1
    80013d42:	078e                	slli	a5,a5,0x3
    80013d44:	f5043703          	ld	a4,-176(s0)
    80013d48:	97ba                	add	a5,a5,a4
    80013d4a:	02f777d3          	fadd.d	fa5,fa4,fa5
    80013d4e:	a39c                	fsd	fa5,0(a5)
    80013d50:	fb842703          	lw	a4,-72(s0)
    80013d54:	87ba                	mv	a5,a4
    80013d56:	0017979b          	slliw	a5,a5,0x1
    80013d5a:	9fb9                	addw	a5,a5,a4
    80013d5c:	2781                	sext.w	a5,a5
    80013d5e:	0789                	addi	a5,a5,2
    80013d60:	078e                	slli	a5,a5,0x3
    80013d62:	f5043703          	ld	a4,-176(s0)
    80013d66:	97ba                	add	a5,a5,a4
    80013d68:	2398                	fld	fa4,0(a5)
    80013d6a:	f0043687          	fld	fa3,-256(s0)
    80013d6e:	ed043787          	fld	fa5,-304(s0)
    80013d72:	12f6f7d3          	fmul.d	fa5,fa3,fa5
    80013d76:	fb842703          	lw	a4,-72(s0)
    80013d7a:	87ba                	mv	a5,a4
    80013d7c:	0017979b          	slliw	a5,a5,0x1
    80013d80:	9fb9                	addw	a5,a5,a4
    80013d82:	2781                	sext.w	a5,a5
    80013d84:	0789                	addi	a5,a5,2
    80013d86:	078e                	slli	a5,a5,0x3
    80013d88:	f5043703          	ld	a4,-176(s0)
    80013d8c:	97ba                	add	a5,a5,a4
    80013d8e:	02f777d3          	fadd.d	fa5,fa4,fa5
    80013d92:	a39c                	fsd	fa5,0(a5)
    80013d94:	f1842703          	lw	a4,-232(s0)
    80013d98:	87ba                	mv	a5,a4
    80013d9a:	0017979b          	slliw	a5,a5,0x1
    80013d9e:	9fb9                	addw	a5,a5,a4
    80013da0:	2781                	sext.w	a5,a5
    80013da2:	078e                	slli	a5,a5,0x3
    80013da4:	f5043703          	ld	a4,-176(s0)
    80013da8:	97ba                	add	a5,a5,a4
    80013daa:	2398                	fld	fa4,0(a5)
    80013dac:	f1043687          	fld	fa3,-240(s0)
    80013db0:	ed043787          	fld	fa5,-304(s0)
    80013db4:	12f6f7d3          	fmul.d	fa5,fa3,fa5
    80013db8:	f1842703          	lw	a4,-232(s0)
    80013dbc:	87ba                	mv	a5,a4
    80013dbe:	0017979b          	slliw	a5,a5,0x1
    80013dc2:	9fb9                	addw	a5,a5,a4
    80013dc4:	2781                	sext.w	a5,a5
    80013dc6:	078e                	slli	a5,a5,0x3
    80013dc8:	f5043703          	ld	a4,-176(s0)
    80013dcc:	97ba                	add	a5,a5,a4
    80013dce:	0af777d3          	fsub.d	fa5,fa4,fa5
    80013dd2:	a39c                	fsd	fa5,0(a5)
    80013dd4:	f1842703          	lw	a4,-232(s0)
    80013dd8:	87ba                	mv	a5,a4
    80013dda:	0017979b          	slliw	a5,a5,0x1
    80013dde:	9fb9                	addw	a5,a5,a4
    80013de0:	2781                	sext.w	a5,a5
    80013de2:	0785                	addi	a5,a5,1
    80013de4:	078e                	slli	a5,a5,0x3
    80013de6:	f5043703          	ld	a4,-176(s0)
    80013dea:	97ba                	add	a5,a5,a4
    80013dec:	2398                	fld	fa4,0(a5)
    80013dee:	f0843687          	fld	fa3,-248(s0)
    80013df2:	ed043787          	fld	fa5,-304(s0)
    80013df6:	12f6f7d3          	fmul.d	fa5,fa3,fa5
    80013dfa:	f1842703          	lw	a4,-232(s0)
    80013dfe:	87ba                	mv	a5,a4
    80013e00:	0017979b          	slliw	a5,a5,0x1
    80013e04:	9fb9                	addw	a5,a5,a4
    80013e06:	2781                	sext.w	a5,a5
    80013e08:	0785                	addi	a5,a5,1
    80013e0a:	078e                	slli	a5,a5,0x3
    80013e0c:	f5043703          	ld	a4,-176(s0)
    80013e10:	97ba                	add	a5,a5,a4
    80013e12:	0af777d3          	fsub.d	fa5,fa4,fa5
    80013e16:	a39c                	fsd	fa5,0(a5)
    80013e18:	f1842703          	lw	a4,-232(s0)
    80013e1c:	87ba                	mv	a5,a4
    80013e1e:	0017979b          	slliw	a5,a5,0x1
    80013e22:	9fb9                	addw	a5,a5,a4
    80013e24:	2781                	sext.w	a5,a5
    80013e26:	0789                	addi	a5,a5,2
    80013e28:	078e                	slli	a5,a5,0x3
    80013e2a:	f5043703          	ld	a4,-176(s0)
    80013e2e:	97ba                	add	a5,a5,a4
    80013e30:	2398                	fld	fa4,0(a5)
    80013e32:	f0043687          	fld	fa3,-256(s0)
    80013e36:	ed043787          	fld	fa5,-304(s0)
    80013e3a:	12f6f7d3          	fmul.d	fa5,fa3,fa5
    80013e3e:	f1842703          	lw	a4,-232(s0)
    80013e42:	87ba                	mv	a5,a4
    80013e44:	0017979b          	slliw	a5,a5,0x1
    80013e48:	9fb9                	addw	a5,a5,a4
    80013e4a:	2781                	sext.w	a5,a5
    80013e4c:	0789                	addi	a5,a5,2
    80013e4e:	078e                	slli	a5,a5,0x3
    80013e50:	f5043703          	ld	a4,-176(s0)
    80013e54:	97ba                	add	a5,a5,a4
    80013e56:	0af777d3          	fsub.d	fa5,fa4,fa5
    80013e5a:	a39c                	fsd	fa5,0(a5)
    80013e5c:	ed843707          	fld	fa4,-296(s0)
    80013e60:	00002797          	auipc	a5,0x2
    80013e64:	4e878793          	addi	a5,a5,1256 # 80016348 <__tbss_end+0x850>
    80013e68:	239c                	fld	fa5,0(a5)
    80013e6a:	12f77753          	fmul.d	fa4,fa4,fa5
    80013e6e:	ed843687          	fld	fa3,-296(s0)
    80013e72:	00002797          	auipc	a5,0x2
    80013e76:	4be78793          	addi	a5,a5,1214 # 80016330 <__tbss_end+0x838>
    80013e7a:	239c                	fld	fa5,0(a5)
    80013e7c:	0af6f7d3          	fsub.d	fa5,fa3,fa5
    80013e80:	12f77753          	fmul.d	fa4,fa4,fa5
    80013e84:	eec42783          	lw	a5,-276(s0)
    80013e88:	078e                	slli	a5,a5,0x3
    80013e8a:	f8843703          	ld	a4,-120(s0)
    80013e8e:	97ba                	add	a5,a5,a4
    80013e90:	239c                	fld	fa5,0(a5)
    80013e92:	12f777d3          	fmul.d	fa5,fa4,fa5
    80013e96:	fc843707          	fld	fa4,-56(s0)
    80013e9a:	02f777d3          	fadd.d	fa5,fa4,fa5
    80013e9e:	fcf43427          	fsd	fa5,-56(s0)
    80013ea2:	f1043787          	fld	fa5,-240(s0)
    80013ea6:	12f7f753          	fmul.d	fa4,fa5,fa5
    80013eaa:	f0843787          	fld	fa5,-248(s0)
    80013eae:	12f7f7d3          	fmul.d	fa5,fa5,fa5
    80013eb2:	02f77753          	fadd.d	fa4,fa4,fa5
    80013eb6:	f0043787          	fld	fa5,-256(s0)
    80013eba:	12f7f7d3          	fmul.d	fa5,fa5,fa5
    80013ebe:	02f77753          	fadd.d	fa4,fa4,fa5
    80013ec2:	ed043787          	fld	fa5,-304(s0)
    80013ec6:	12f777d3          	fmul.d	fa5,fa4,fa5
    80013eca:	fc043707          	fld	fa4,-64(s0)
    80013ece:	02f777d3          	fadd.d	fa5,fa4,fa5
    80013ed2:	fcf43027          	fsd	fa5,-64(s0)
    --86 OCCURRENCIES * 451cc (1st 686cc)

    80013ed6:	fb442783          	lw	a5,-76(s0)
    80013eda:	2785                	addiw	a5,a5,1
    80013edc:	faf42a23          	sw	a5,-76(s0)
    80013ee0:	fb442703          	lw	a4,-76(s0)
    80013ee4:	f3c42783          	lw	a5,-196(s0)
    80013ee8:	2701                	sext.w	a4,a4
    80013eea:	2781                	sext.w	a5,a5
    80013eec:	c6f74ae3          	blt	a4,a5,80013b60 <inner_loop> (+1)
    --154 OCCURRENCIES * 13 cc

    80013ef0:	fb842783          	lw	a5,-72(s0)
    80013ef4:	2785                	addiw	a5,a5,1
    80013ef6:	faf42c23          	sw	a5,-72(s0)
    --4 OCCURRENCIES * 3cc

    80013efa:	fb842703          	lw	a4,-72(s0)
    80013efe:	f6442783          	lw	a5,-156(s0)
    80013f02:	2701                	sext.w	a4,a4
    80013f04:	2781                	sext.w	a5,a5
    80013f06:	baf74fe3          	blt	a4,a5,80013ac4 <main_loop>
    --5 OCCURRENCIES * 4cc

    80013f0a:	00002517          	auipc	a0,0x2
    80013f0e:	3ae50513          	addi	a0,a0,942 # 800162b8 <__tbss_end+0x7c0>
    80013f12:	2d2000ef          	jal	ra,800141e4 <iprintf>
    --1 OCCURRENCE * 3cc

    80013f16:	00002517          	auipc	a0,0x2
    80013f1a:	3ba50513          	addi	a0,a0,954 # 800162d0 <__tbss_end+0x7d8>
    80013f1e:	2c6000ef          	jal	ra,800141e4 <iprintf>
    --1 OCCURRENCE * 3cc

    80013f22:	fc843507          	fld	fa0,-56(s0)
    80013f26:	04a000ef          	jal	ra,80013f70 <print_float>
    --1 OCCURRENCIES * 5cc

    80013f2a:	00002517          	auipc	a0,0x2
    80013f2e:	36650513          	addi	a0,a0,870 # 80016290 <__tbss_end+0x798>
    80013f32:	2b2000ef          	jal	ra,800141e4 <iprintf>
    --1 OCCURRENCE * 3cc

    80013f36:	00002517          	auipc	a0,0x2
    80013f3a:	3aa50513          	addi	a0,a0,938 # 800162e0 <__tbss_end+0x7e8>
    80013f3e:	2a6000ef          	jal	ra,800141e4 <iprintf>
    --1 OCCURRENCE * 3cc

    80013f42:	fc043507          	fld	fa0,-64(s0)
    80013f46:	02a000ef          	jal	ra,80013f70 <print_float>
    --1 OCCURRENCE * 5cc

    80013f4a:	00002517          	auipc	a0,0x2
    80013f4e:	34650513          	addi	a0,a0,838 # 80016290 <__tbss_end+0x798>
    80013f52:	292000ef          	jal	ra,800141e4 <iprintf>
    --1 OCCURRENCE * 3cc

    80013f56:	00002517          	auipc	a0,0x2
    80013f5a:	39a50513          	addi	a0,a0,922 # 800162f0 <__tbss_end+0x7f8>
    80013f5e:	286000ef          	jal	ra,800141e4 <iprintf>
    --1 OCCURRENCE * 3cc

    80013f62:	0001                	nop
    80013f64:	70f2                	ld	ra,312(sp)
    80013f66:	7452                	ld	s0,304(sp)
    80013f68:	74b2                	ld	s1,296(sp)
    80013f6a:	7912                	ld	s2,288(sp)
    80013f6c:	6131                	addi	sp,sp,320
    80013f6e:	8082                	ret
    --1 OCCURRENCE * 7cc