800052a8	0089b783          	ld	a5,8(s3)
800052ac	0009a303          	lw	t1,0(s3)
800052b0	01e508b3          	add	a7,a0,t5
800052b4	97fa                add	a5,a5,t5
800052b6	439c                lw	a5,0(a5)
800052b8	02b3033b          	mulw	t1,t1,a1
800052bc	0109b703          	ld	a4,16(s3)
800052c0	000eb287          	fld	ft5,0(t4)
800052c4	008eb307          	fld	ft6,8(t4)
800052c8	010eb387          	fld	ft7,16(t4)
800052cc	0008ae03          	lw	t3,0(a7)
800052d0	12f05263          	blez	a5,800053f4 <inner_loop+0x104>
800052d4	fff7889b          	addiw	a7,a5,-1
800052d8	1882                slli	a7,a7,0x20
800052da	0208d893          	srli	a7,a7,0x20
800052de	989a                add	a7,a7,t1
800052e0	00470793          	addi	a5,a4,4
800052e4	030a                slli	t1,t1,0x2
800052e6	088a                slli	a7,a7,0x2
800052e8	002e1e1b          	slliw	t3,t3,0x2
800052ec	971a                add	a4,a4,t1
800052ee	98be                add	a7,a7,a5
800052f0	00072383          	lw	t2,0(a4)
800052f4	0711                addi	a4,a4,4
800052f6	0013979b          	slliw	a5,t2,0x1
800052fa	0077833b          	addw	t1,a5,t2
800052fe	00130793          	addi	a5,t1,1
80005302	00379293          	slli	t0,a5,0x3
80005306	005807b3          	add	a5,a6,t0
8000530a	0007b007          	fld	ft0,0(a5)
8000530e	00331793          	slli	a5,t1,0x3
80005312	00f60333          	add	t1,a2,a5
80005316	0a037053          	fsub	ft0,ft6,ft0
8000531a	97c2                add	a5,a5,a6
8000531c	2394                fld	fa3,0(a5)
8000531e	00828f93          	addi	t6,t0,8
80005322	005607b3          	add	a5,a2,t0
80005326	0ad2f6d3          	fsub	fa3,ft5,fa3
8000532a	01f802b3          	add	t0,a6,t6
8000532e	12007653          	fmul	fa2,ft0,ft0
80005332	0002b787          	fld	fa5,0(t0)
80005336	00239293          	slli	t0,t2,0x2
8000533a	92aa                	add	t0,t0,a0
8000533c	0af3f7d3          	fsub	fa5,ft7,fa5
80005340	0002a283          	lw	t0,0(t0)
80005344	9fb2                	add	t6,t6,a2
80005346	62d6f643          	fmadd	fa2,fa3,fa3,fa2
8000534a	01c282bb          	addw	t0,t0,t3
8000534e	028e                	slli	t0,t0,0x3
80005350	005900b3          	add	ra,s2,t0
80005354	005483b3          	add	t2,s1,t0
80005358	92a2                	add	t0,t0,s0
8000535a	0002b707          	fld	fa4,0(t0)
8000535e	62f7f643          	fmadd	fa2,fa5,fa5,fa2
80005362	a2e612d3          	flt 	t0,fa2,fa4
80005366	08028563          	beqz	t0,800053f0 <inner_loop+0x100>
8000536a	1ac570d3          	fdiv	ft1,fa0,fa2
8000536e	0000b707          	fld	fa4,0(ra)
80005372	0003bf07          	fld	ft10,0(t2)
80005376	0006b207          	fld	ft4,0(a3)
8000537a	0086b187          	fld	ft3,8(a3)
8000537e	0106b107          	fld	ft2,16(a3)
80005382	1210f5d3          	fmul	fa1,ft1,ft1
80005386	1215f5d3          	fmul	fa1,fa1,ft1
8000538a	12e5f5d3          	fmul	fa1,fa1,fa4
8000538e	13c5f753          	fmul	fa4,fa1,ft8
80005392	0b15ffd3          	fsub	ft11,fa1,fa7
80005396	1305fed3          	fmul	ft9,fa1,fa6
8000539a	0aa5f5d3          	fsub	fa1,fa1,fa0
8000539e	13f77753          	fmul	fa4,fa4,ft11
800053a2	12bef5d3          	fmul	fa1,ft9,fa1
800053a6	12177753          	fmul	fa4,fa4,ft1
800053aa	4abf74c3          	fmadd	fs1,ft10,fa1,fs1
800053ae	13e77753          	fmul	fa4,fa4,ft10
800053b2	22e6f243          	fmadd	ft4,fa3,fa4,ft4
800053b6	1ae071c3          	fmadd	ft3,ft0,fa4,ft3
800053ba	12e7f143          	fmadd	ft2,fa5,fa4,ft2
800053be	42e67443          	fmadd	fs0,fa2,fa4,fs0
800053c2	0046b027          	fsd	ft4,0(a3)
800053c6	0036b427          	fsd	ft3,8(a3)
800053ca	0026b827          	fsd	ft2,16(a3)
800053ce	00033607          	fld	fa2,0(t1)
800053d2	62e6f6cb          	fnmsub  	fa3,fa3,fa4,fa2
800053d6	00d33027          	fsd	fa3,0(t1)
800053da	2394                	fld	fa3,0(a5)
800053dc	6ae0704b          	fnmsub  	ft0,ft0,fa4,fa3
800053e0	0007b027          	fsd	ft0,0(a5)
800053e4	000fb687          	fld	fa3,0(t6)
800053e8	6ae7f7cb          	fnmsub  	fa5,fa5,fa4,fa3
800053ec	00ffb027          	fsd	fa5,0(t6)
800053f0	f11710e3          	bne	a4,a7,800052f0 <inner_loop>
800053f4	2585                	addiw	a1,a1,1
800053f6	0f11                	addi	t5,t5,4
800053f8	0ee1                	addi	t4,t4,24
800053fa	06e1                	addi	a3,a3,24
800053fc	eaba16e3          	bne	s4,a1,800052a8 <main_loop>
80005400	00002517          	auipc	a0,0x2
80005404	c8050513          	addi	a0,a0,-896 # 80007080 <__tbss_end+0xf2>
80005408	272000ef          	jal	ra,8000567a <iprintf>
8000540c	00002517          	auipc	a0,0x2
80005410	c8c50513          	addi	a0,a0,-884 # 80007098 <__tbss_end+0x10a>
80005414	266000ef          	jal	ra,8000567a <iprintf>
80005418	22948553          	fmv 	fa0,fs1
8000541c	04e000ef          	jal	ra,8000546a <print_float>
80005420	00002517          	auipc	a0,0x2
80005424	c1050513          	addi	a0,a0,-1008 # 80007030 <__tbss_end+0xa2>
80005428	252000ef          	jal	ra,8000567a <iprintf>
8000542c	00002517          	auipc	a0,0x2
80005430	c7c50513          	addi	a0,a0,-900 # 800070a8 <__tbss_end+0x11a>
80005434	246000ef          	jal	ra,8000567a <iprintf>
80005438	22840553          	fmv 	fa0,fs0
8000543c	02e000ef          	jal	ra,8000546a <print_float>
80005440	00002517          	auipc	a0,0x2
80005444	bf050513          	addi	a0,a0,-1040 # 80007030 <__tbss_end+0xa2>
80005448	232000ef          	jal	ra,8000567a <iprintf>
8000544c	6406                	ld	s0,64(sp)
8000544e	60a6                	ld	ra,72(sp)
80005450	74e2                	ld	s1,56(sp)
80005452	7942                	ld	s2,48(sp)
80005454	79a2                	ld	s3,40(sp)
80005456	7a02                	ld	s4,32(sp)
80005458	6ae2                	ld	s5,24(sp)
8000545a	2422                	fld	fs0,8(sp)
8000545c	2482                	fld	fs1,0(sp)
8000545e	00002517          	auipc	a0,0x2
80005462	c5a50513          	addi	a0,a0,-934 # 800070b8 <__tbss_end+0x12a>
80005466	6161                	addi	sp,sp,80
80005468	ac09                	j	8000567a <iprintf>
