0000000080013b64 <inner_loop>:
    80013b64:	fb442783          	lw	a5,-76(s0)
    80013b68:	078a                	slli	a5,a5,0x2
    80013b6a:	f4043703          	ld	a4,-192(s0)
    80013b6e:	97ba                	add	a5,a5,a4
    80013b70:	439c                	lw	a5,0(a5)
    80013b72:	f0f42c23          	sw	a5,-232(s0)
    80013b76:	f1842703          	lw	a4,-232(s0)
    80013b7a:	87ba                	mv	a5,a4
    80013b7c:	0017979b          	slliw	a5,a5,0x1
    80013b80:	9fb9                	addw	a5,a5,a4
    80013b82:	2781                	sext.w	a5,a5
    80013b84:	078e                	slli	a5,a5,0x3
    80013b86:	f5843703          	ld	a4,-168(s0)
    80013b8a:	97ba                	add	a5,a5,a4
    80013b8c:	239c                	fld	fa5,0(a5)
    80013b8e:	f3043707          	fld	fa4,-208(s0)
    80013b92:	0af777d3          	fsub.d	fa5,fa4,fa5
    80013b96:	f0f43827          	fsd	fa5,-240(s0)
    80013b9a:	f1842703          	lw	a4,-232(s0)
    80013b9e:	87ba                	mv	a5,a4
    80013ba0:	0017979b          	slliw	a5,a5,0x1
    80013ba4:	9fb9                	addw	a5,a5,a4
    80013ba6:	2781                	sext.w	a5,a5
    80013ba8:	0785                	addi	a5,a5,1
    80013baa:	078e                	slli	a5,a5,0x3
    80013bac:	f5843703          	ld	a4,-168(s0)
    80013bb0:	97ba                	add	a5,a5,a4
    80013bb2:	239c                	fld	fa5,0(a5)
    80013bb4:	f2843707          	fld	fa4,-216(s0)
    80013bb8:	0af777d3          	fsub.d	fa5,fa4,fa5
    80013bbc:	f0f43427          	fsd	fa5,-248(s0)
    80013bc0:	f1842703          	lw	a4,-232(s0)
    80013bc4:	87ba                	mv	a5,a4
    80013bc6:	0017979b          	slliw	a5,a5,0x1
    80013bca:	9fb9                	addw	a5,a5,a4
    80013bcc:	2781                	sext.w	a5,a5
    80013bce:	0789                	addi	a5,a5,2
    80013bd0:	078e                	slli	a5,a5,0x3
    80013bd2:	f5843703          	ld	a4,-168(s0)
    80013bd6:	97ba                	add	a5,a5,a4
    80013bd8:	239c                	fld	fa5,0(a5)
    80013bda:	f2043707          	fld	fa4,-224(s0)
    80013bde:	0af777d3          	fsub.d	fa5,fa4,fa5
    80013be2:	f0f43027          	fsd	fa5,-256(s0)
    80013be6:	f1842783          	lw	a5,-232(s0)
    80013bea:	078a                	slli	a5,a5,0x2
    80013bec:	f4843703          	ld	a4,-184(s0)
    80013bf0:	97ba                	add	a5,a5,a4
    80013bf2:	439c                	lw	a5,0(a5)
    80013bf4:	eef42e23          	sw	a5,-260(s0)
    80013bf8:	f1043787          	fld	fa5,-240(s0)
    80013bfc:	12f7f753          	fmul.d	fa4,fa5,fa5
    80013c00:	f0843787          	fld	fa5,-248(s0)
    80013c04:	12f7f7d3          	fmul.d	fa5,fa5,fa5
    80013c08:	02f77753          	fadd.d	fa4,fa4,fa5
    80013c0c:	f0043787          	fld	fa5,-256(s0)
    80013c10:	12f7f7d3          	fmul.d	fa5,fa5,fa5
    80013c14:	02f777d3          	fadd.d	fa5,fa4,fa5
    80013c18:	eef43827          	fsd	fa5,-272(s0)
    80013c1c:	f1c42703          	lw	a4,-228(s0)
    80013c20:	f9c42783          	lw	a5,-100(s0)
    80013c24:	02f707bb          	mulw	a5,a4,a5
    80013c28:	2781                	sext.w	a5,a5
    80013c2a:	efc42703          	lw	a4,-260(s0)
    80013c2e:	9fb9                	addw	a5,a5,a4
    80013c30:	eef42623          	sw	a5,-276(s0)
    80013c34:	eec42783          	lw	a5,-276(s0)
    80013c38:	078e                	slli	a5,a5,0x3
    80013c3a:	f9043703          	ld	a4,-112(s0)
    80013c3e:	97ba                	add	a5,a5,a4
    80013c40:	239c                	fld	fa5,0(a5)
    80013c42:	ef043707          	fld	fa4,-272(s0)
    80013c46:	a2f717d3          	flt.d	a5,fa4,fa5
    80013c4a:	28078863          	beqz	a5,80013eda <inner_loop+0x376>
    80013c4e:	00002797          	auipc	a5,0x2
    80013c52:	6ea78793          	addi	a5,a5,1770 # 80016338 <__tbss_end+0x83c>
    80013c56:	2398                	fld	fa4,0(a5)
    80013c58:	ef043787          	fld	fa5,-272(s0)
    80013c5c:	1af777d3          	fdiv.d	fa5,fa4,fa5
    80013c60:	eef43027          	fsd	fa5,-288(s0)
    80013c64:	ee043787          	fld	fa5,-288(s0)
    80013c68:	12f7f753          	fmul.d	fa4,fa5,fa5
    80013c6c:	ee043787          	fld	fa5,-288(s0)
    80013c70:	12f77753          	fmul.d	fa4,fa4,fa5
    80013c74:	eec42783          	lw	a5,-276(s0)
    80013c78:	078e                	slli	a5,a5,0x3
    80013c7a:	f8043703          	ld	a4,-128(s0)
    80013c7e:	97ba                	add	a5,a5,a4
    80013c80:	239c                	fld	fa5,0(a5)
    80013c82:	12f777d3          	fmul.d	fa5,fa4,fa5
    80013c86:	ecf43c27          	fsd	fa5,-296(s0)
    80013c8a:	ed843707          	fld	fa4,-296(s0)
    80013c8e:	00002797          	auipc	a5,0x2
    80013c92:	6b278793          	addi	a5,a5,1714 # 80016340 <__tbss_end+0x844>
    80013c96:	239c                	fld	fa5,0(a5)
    80013c98:	12f77753          	fmul.d	fa4,fa4,fa5
    80013c9c:	ed843687          	fld	fa3,-296(s0)
    80013ca0:	00002797          	auipc	a5,0x2
    80013ca4:	6a878793          	addi	a5,a5,1704 # 80016348 <__tbss_end+0x84c>
    80013ca8:	239c                	fld	fa5,0(a5)
    80013caa:	0af6f7d3          	fsub.d	fa5,fa3,fa5
    80013cae:	12f77753          	fmul.d	fa4,fa4,fa5
    80013cb2:	ee043787          	fld	fa5,-288(s0)
    80013cb6:	12f77753          	fmul.d	fa4,fa4,fa5
    80013cba:	eec42783          	lw	a5,-276(s0)
    80013cbe:	078e                	slli	a5,a5,0x3
    80013cc0:	f8843703          	ld	a4,-120(s0)
    80013cc4:	97ba                	add	a5,a5,a4
    80013cc6:	239c                	fld	fa5,0(a5)
    80013cc8:	12f777d3          	fmul.d	fa5,fa4,fa5
    80013ccc:	ecf43827          	fsd	fa5,-304(s0)
    80013cd0:	fb842703          	lw	a4,-72(s0)
    80013cd4:	87ba                	mv	a5,a4
    80013cd6:	0017979b          	slliw	a5,a5,0x1
    80013cda:	9fb9                	addw	a5,a5,a4
    80013cdc:	2781                	sext.w	a5,a5
    80013cde:	078e                	slli	a5,a5,0x3
    80013ce0:	f5043703          	ld	a4,-176(s0)
    80013ce4:	97ba                	add	a5,a5,a4
    80013ce6:	2398                	fld	fa4,0(a5)
    80013ce8:	f1043687          	fld	fa3,-240(s0)
    80013cec:	ed043787          	fld	fa5,-304(s0)
    80013cf0:	12f6f7d3          	fmul.d	fa5,fa3,fa5
    80013cf4:	fb842703          	lw	a4,-72(s0)
    80013cf8:	87ba                	mv	a5,a4
    80013cfa:	0017979b          	slliw	a5,a5,0x1
    80013cfe:	9fb9                	addw	a5,a5,a4
    80013d00:	2781                	sext.w	a5,a5
    80013d02:	078e                	slli	a5,a5,0x3
    80013d04:	f5043703          	ld	a4,-176(s0)
    80013d08:	97ba                	add	a5,a5,a4
    80013d0a:	02f777d3          	fadd.d	fa5,fa4,fa5
    80013d0e:	a39c                	fsd	fa5,0(a5)
    80013d10:	fb842703          	lw	a4,-72(s0)
    80013d14:	87ba                	mv	a5,a4
    80013d16:	0017979b          	slliw	a5,a5,0x1
    80013d1a:	9fb9                	addw	a5,a5,a4
    80013d1c:	2781                	sext.w	a5,a5
    80013d1e:	0785                	addi	a5,a5,1
    80013d20:	078e                	slli	a5,a5,0x3
    80013d22:	f5043703          	ld	a4,-176(s0)
    80013d26:	97ba                	add	a5,a5,a4
    80013d28:	2398                	fld	fa4,0(a5)
    80013d2a:	f0843687          	fld	fa3,-248(s0)
    80013d2e:	ed043787          	fld	fa5,-304(s0)
    80013d32:	12f6f7d3          	fmul.d	fa5,fa3,fa5
    80013d36:	fb842703          	lw	a4,-72(s0)
    80013d3a:	87ba                	mv	a5,a4
    80013d3c:	0017979b          	slliw	a5,a5,0x1
    80013d40:	9fb9                	addw	a5,a5,a4
    80013d42:	2781                	sext.w	a5,a5
    80013d44:	0785                	addi	a5,a5,1
    80013d46:	078e                	slli	a5,a5,0x3
    80013d48:	f5043703          	ld	a4,-176(s0)
    80013d4c:	97ba                	add	a5,a5,a4
    80013d4e:	02f777d3          	fadd.d	fa5,fa4,fa5
    80013d52:	a39c                	fsd	fa5,0(a5)
    80013d54:	fb842703          	lw	a4,-72(s0)
    80013d58:	87ba                	mv	a5,a4
    80013d5a:	0017979b          	slliw	a5,a5,0x1
    80013d5e:	9fb9                	addw	a5,a5,a4
    80013d60:	2781                	sext.w	a5,a5
    80013d62:	0789                	addi	a5,a5,2
    80013d64:	078e                	slli	a5,a5,0x3
    80013d66:	f5043703          	ld	a4,-176(s0)
    80013d6a:	97ba                	add	a5,a5,a4
    80013d6c:	2398                	fld	fa4,0(a5)
    80013d6e:	f0043687          	fld	fa3,-256(s0)
    80013d72:	ed043787          	fld	fa5,-304(s0)
    80013d76:	12f6f7d3          	fmul.d	fa5,fa3,fa5
    80013d7a:	fb842703          	lw	a4,-72(s0)
    80013d7e:	87ba                	mv	a5,a4
    80013d80:	0017979b          	slliw	a5,a5,0x1
    80013d84:	9fb9                	addw	a5,a5,a4
    80013d86:	2781                	sext.w	a5,a5
    80013d88:	0789                	addi	a5,a5,2
    80013d8a:	078e                	slli	a5,a5,0x3
    80013d8c:	f5043703          	ld	a4,-176(s0)
    80013d90:	97ba                	add	a5,a5,a4
    80013d92:	02f777d3          	fadd.d	fa5,fa4,fa5
    80013d96:	a39c                	fsd	fa5,0(a5)
    80013d98:	f1842703          	lw	a4,-232(s0)
    80013d9c:	87ba                	mv	a5,a4
    80013d9e:	0017979b          	slliw	a5,a5,0x1
    80013da2:	9fb9                	addw	a5,a5,a4
    80013da4:	2781                	sext.w	a5,a5
    80013da6:	078e                	slli	a5,a5,0x3
    80013da8:	f5043703          	ld	a4,-176(s0)
    80013dac:	97ba                	add	a5,a5,a4
    80013dae:	2398                	fld	fa4,0(a5)
    80013db0:	f1043687          	fld	fa3,-240(s0)
    80013db4:	ed043787          	fld	fa5,-304(s0)
    80013db8:	12f6f7d3          	fmul.d	fa5,fa3,fa5
    80013dbc:	f1842703          	lw	a4,-232(s0)
    80013dc0:	87ba                	mv	a5,a4
    80013dc2:	0017979b          	slliw	a5,a5,0x1
    80013dc6:	9fb9                	addw	a5,a5,a4
    80013dc8:	2781                	sext.w	a5,a5
    80013dca:	078e                	slli	a5,a5,0x3
    80013dcc:	f5043703          	ld	a4,-176(s0)
    80013dd0:	97ba                	add	a5,a5,a4
    80013dd2:	0af777d3          	fsub.d	fa5,fa4,fa5
    80013dd6:	a39c                	fsd	fa5,0(a5)
    80013dd8:	f1842703          	lw	a4,-232(s0)
    80013ddc:	87ba                	mv	a5,a4
    80013dde:	0017979b          	slliw	a5,a5,0x1
    80013de2:	9fb9                	addw	a5,a5,a4
    80013de4:	2781                	sext.w	a5,a5
    80013de6:	0785                	addi	a5,a5,1
    80013de8:	078e                	slli	a5,a5,0x3
    80013dea:	f5043703          	ld	a4,-176(s0)
    80013dee:	97ba                	add	a5,a5,a4
    80013df0:	2398                	fld	fa4,0(a5)
    80013df2:	f0843687          	fld	fa3,-248(s0)
    80013df6:	ed043787          	fld	fa5,-304(s0)
    80013dfa:	12f6f7d3          	fmul.d	fa5,fa3,fa5
    80013dfe:	f1842703          	lw	a4,-232(s0)
    80013e02:	87ba                	mv	a5,a4
    80013e04:	0017979b          	slliw	a5,a5,0x1
    80013e08:	9fb9                	addw	a5,a5,a4
    80013e0a:	2781                	sext.w	a5,a5
    80013e0c:	0785                	addi	a5,a5,1
    80013e0e:	078e                	slli	a5,a5,0x3
    80013e10:	f5043703          	ld	a4,-176(s0)
    80013e14:	97ba                	add	a5,a5,a4
    80013e16:	0af777d3          	fsub.d	fa5,fa4,fa5
    80013e1a:	a39c                	fsd	fa5,0(a5)
    80013e1c:	f1842703          	lw	a4,-232(s0)
    80013e20:	87ba                	mv	a5,a4
    80013e22:	0017979b          	slliw	a5,a5,0x1
    80013e26:	9fb9                	addw	a5,a5,a4
    80013e28:	2781                	sext.w	a5,a5
    80013e2a:	0789                	addi	a5,a5,2
    80013e2c:	078e                	slli	a5,a5,0x3
    80013e2e:	f5043703          	ld	a4,-176(s0)
    80013e32:	97ba                	add	a5,a5,a4
    80013e34:	2398                	fld	fa4,0(a5)
    80013e36:	f0043687          	fld	fa3,-256(s0)
    80013e3a:	ed043787          	fld	fa5,-304(s0)
    80013e3e:	12f6f7d3          	fmul.d	fa5,fa3,fa5
    80013e42:	f1842703          	lw	a4,-232(s0)
    80013e46:	87ba                	mv	a5,a4
    80013e48:	0017979b          	slliw	a5,a5,0x1
    80013e4c:	9fb9                	addw	a5,a5,a4
    80013e4e:	2781                	sext.w	a5,a5
    80013e50:	0789                	addi	a5,a5,2
    80013e52:	078e                	slli	a5,a5,0x3
    80013e54:	f5043703          	ld	a4,-176(s0)
    80013e58:	97ba                	add	a5,a5,a4
    80013e5a:	0af777d3          	fsub.d	fa5,fa4,fa5
    80013e5e:	a39c                	fsd	fa5,0(a5)
    80013e60:	ed843707          	fld	fa4,-296(s0)
    80013e64:	00002797          	auipc	a5,0x2
    80013e68:	4ec78793          	addi	a5,a5,1260 # 80016350 <__tbss_end+0x854>
    80013e6c:	239c                	fld	fa5,0(a5)
    80013e6e:	12f77753          	fmul.d	fa4,fa4,fa5
    80013e72:	ed843687          	fld	fa3,-296(s0)
    80013e76:	00002797          	auipc	a5,0x2
    80013e7a:	4c278793          	addi	a5,a5,1218 # 80016338 <__tbss_end+0x83c>
    80013e7e:	239c                	fld	fa5,0(a5)
    80013e80:	0af6f7d3          	fsub.d	fa5,fa3,fa5
    80013e84:	12f77753          	fmul.d	fa4,fa4,fa5
    80013e88:	eec42783          	lw	a5,-276(s0)
    80013e8c:	078e                	slli	a5,a5,0x3
    80013e8e:	f8843703          	ld	a4,-120(s0)
    80013e92:	97ba                	add	a5,a5,a4
    80013e94:	239c                	fld	fa5,0(a5)
    80013e96:	12f777d3          	fmul.d	fa5,fa4,fa5
    80013e9a:	fc843707          	fld	fa4,-56(s0)
    80013e9e:	02f777d3          	fadd.d	fa5,fa4,fa5
    80013ea2:	fcf43427          	fsd	fa5,-56(s0)
    80013ea6:	f1043787          	fld	fa5,-240(s0)
    80013eaa:	12f7f753          	fmul.d	fa4,fa5,fa5
    80013eae:	f0843787          	fld	fa5,-248(s0)
    80013eb2:	12f7f7d3          	fmul.d	fa5,fa5,fa5
    80013eb6:	02f77753          	fadd.d	fa4,fa4,fa5
    80013eba:	f0043787          	fld	fa5,-256(s0)
    80013ebe:	12f7f7d3          	fmul.d	fa5,fa5,fa5
    80013ec2:	02f77753          	fadd.d	fa4,fa4,fa5
    80013ec6:	ed043787          	fld	fa5,-304(s0)
    80013eca:	12f777d3          	fmul.d	fa5,fa4,fa5
    80013ece:	fc043707          	fld	fa4,-64(s0)
    80013ed2:	02f777d3          	fadd.d	fa5,fa4,fa5
    80013ed6:	fcf43027          	fsd	fa5,-64(s0)
    80013eda:	fb442783          	lw	a5,-76(s0)
    80013ede:	2785                	addiw	a5,a5,1
    80013ee0:	faf42a23          	sw	a5,-76(s0)
    80013ee4:	fb442703          	lw	a4,-76(s0)
    80013ee8:	f3c42783          	lw	a5,-196(s0)
    80013eec:	2701                	sext.w	a4,a4
    80013eee:	2781                	sext.w	a5,a5
    80013ef0:	c6f74ae3          	blt	a4,a5,80013b64 <inner_loop>
    80013ef4:	fb842783          	lw	a5,-72(s0)
    80013ef8:	2785                	addiw	a5,a5,1
    80013efa:	faf42c23          	sw	a5,-72(s0)
    80013efe:	fb842703          	lw	a4,-72(s0)
    80013f02:	f6442783          	lw	a5,-156(s0)
    80013f06:	2701                	sext.w	a4,a4
    80013f08:	2781                	sext.w	a5,a5
    80013f0a:	baf74fe3          	blt	a4,a5,80013ac8 <main_loop>
    80013f0e:	00002517          	auipc	a0,0x2
    80013f12:	3b250513          	addi	a0,a0,946 # 800162c0 <__tbss_end+0x7c4>
    80013f16:	2d2000ef          	jal	ra,800141e8 <iprintf>
    80013f1a:	00002517          	auipc	a0,0x2
    80013f1e:	3be50513          	addi	a0,a0,958 # 800162d8 <__tbss_end+0x7dc>
    80013f22:	2c6000ef          	jal	ra,800141e8 <iprintf>
    80013f26:	fc843507          	fld	fa0,-56(s0)
    80013f2a:	04a000ef          	jal	ra,80013f74 <print_float>
    80013f2e:	00002517          	auipc	a0,0x2
    80013f32:	36a50513          	addi	a0,a0,874 # 80016298 <__tbss_end+0x79c>
    80013f36:	2b2000ef          	jal	ra,800141e8 <iprintf>
    80013f3a:	00002517          	auipc	a0,0x2
    80013f3e:	3ae50513          	addi	a0,a0,942 # 800162e8 <__tbss_end+0x7ec>
    80013f42:	2a6000ef          	jal	ra,800141e8 <iprintf>
    80013f46:	fc043507          	fld	fa0,-64(s0)
    80013f4a:	02a000ef          	jal	ra,80013f74 <print_float>
    80013f4e:	00002517          	auipc	a0,0x2
    80013f52:	34a50513          	addi	a0,a0,842 # 80016298 <__tbss_end+0x79c>
    80013f56:	292000ef          	jal	ra,800141e8 <iprintf>
    80013f5a:	00002517          	auipc	a0,0x2
    80013f5e:	39e50513          	addi	a0,a0,926 # 800162f8 <__tbss_end+0x7fc>
    80013f62:	286000ef          	jal	ra,800141e8 <iprintf>
    80013f66:	0001                	nop
    80013f68:	70f2                	ld	ra,312(sp)
    80013f6a:	7452                	ld	s0,304(sp)
    80013f6c:	74b2                	ld	s1,296(sp)
    80013f6e:	7912                	ld	s2,288(sp)
    80013f70:	6131                	addi	sp,sp,320
    80013f72:	8082                	ret
